target datalayout = "e-m:e-p270:32:32-p271:32:32-p272:64:64-i64:64-i128:128-f80:128-n8:16:32:64-S128"
target triple = "x86_64-pc-linux-gnu"

%struct.pbl_node_t = type { i32, ptr, ptr, ptr, ptr, ptr, ptr, i32 }
%struct.pbl_field_descriptor_t = type { %struct.pbl_node_t, i32, i32, ptr, ptr, i8, i8, i8, ptr, i32, %union.anon }
%union.anon = type { i64 }
%struct.pbl_enum_descriptor_t = type { %struct.pbl_node_t, ptr, ptr }

; Function Attrs: null_pointer_is_valid sspstrong uwtable
define hidden ptr @pbl_enum_descriptor_value(ptr noundef %0, i32 noundef %1) #0 {
  %3 = alloca ptr, align 8
  %4 = alloca i32, align 4
  store ptr %0, ptr %3, align 8
  store i32 %1, ptr %4, align 4
  %5 = load ptr, ptr %3, align 8
  %6 = icmp ne ptr %5, null
  br i1 %6, label %7, label %18

7:                                                ; preds = %2
  %8 = load ptr, ptr %3, align 8
  %9 = getelementptr inbounds nuw %struct.pbl_enum_descriptor_t, ptr %8, i32 0, i32 1
  %10 = load ptr, ptr %9, align 8
  %11 = icmp ne ptr %10, null
  br i1 %11, label %12, label %18

12:                                               ; preds = %7
  %13 = load ptr, ptr %3, align 8
  %14 = getelementptr inbounds nuw %struct.pbl_enum_descriptor_t, ptr %13, i32 0, i32 1
  %15 = load ptr, ptr %14, align 8
  %16 = load i32, ptr %4, align 4
  %17 = call ptr @g_queue_peek_nth(ptr noundef %15, i32 noundef %16)
  br label %19

18:                                               ; preds = %7, %2
  br label %19

19:                                               ; preds = %18, %12
  %20 = phi ptr [ %17, %12 ], [ null, %18 ]
  ret ptr %20
}

; Function Attrs: null_pointer_is_valid sspstrong uwtable
define hidden ptr @pbl_enum_descriptor_FindValueByName(ptr noundef %0, ptr noundef %1) #0 {
  %3 = alloca ptr, align 8
  %4 = alloca ptr, align 8
  %5 = alloca ptr, align 8
  store ptr %0, ptr %4, align 8
  store ptr %1, ptr %5, align 8
  %6 = load ptr, ptr %4, align 8
  %7 = icmp ne ptr %6, null
  br i1 %7, label %8, label %19

8:                                                ; preds = %2
  %9 = load ptr, ptr %4, align 8
  %10 = getelementptr inbounds nuw %struct.pbl_node_t, ptr %9, i32 0, i32 5
  %11 = load ptr, ptr %10, align 8
  %12 = icmp ne ptr %11, null
  br i1 %12, label %13, label %19

13:                                               ; preds = %8
  %14 = load ptr, ptr %4, align 8
  %15 = getelementptr inbounds nuw %struct.pbl_node_t, ptr %14, i32 0, i32 5
  %16 = load ptr, ptr %15, align 8
  %17 = load ptr, ptr %5, align 8
  %18 = call ptr @g_hash_table_lookup(ptr noundef %16, ptr noundef %17)
  store ptr %18, ptr %3, align 8
  br label %20

19:                                               ; preds = %8, %2
  store ptr null, ptr %3, align 8
  br label %20

20:                                               ; preds = %19, %13
  %21 = load ptr, ptr %3, align 8
  ret ptr %21
}

; Function Attrs: null_pointer_is_valid sspstrong uwtable
define hidden ptr @pbl_field_descriptor_enum_type(ptr noundef %0) #0 {
  %2 = alloca ptr, align 8
  %3 = alloca ptr, align 8
  %4 = alloca ptr, align 8
  %5 = alloca i32, align 4
  store ptr %0, ptr %3, align 8
  call void @llvm.lifetime.start.p0(i64 8, ptr %4) #13
  %6 = load ptr, ptr %3, align 8
  %7 = getelementptr inbounds nuw %struct.pbl_field_descriptor_t, ptr %6, i32 0, i32 2
  %8 = load i32, ptr %7, align 4
  %9 = icmp eq i32 %8, 14
  br i1 %9, label %10, label %25

10:                                               ; preds = %1
  %11 = load ptr, ptr %3, align 8
  %12 = getelementptr inbounds nuw %struct.pbl_node_t, ptr %11, i32 0, i32 3
  %13 = load ptr, ptr %12, align 8
  %14 = load ptr, ptr %3, align 8
  %15 = getelementptr inbounds nuw %struct.pbl_field_descriptor_t, ptr %14, i32 0, i32 3
  %16 = load ptr, ptr %15, align 8
  %17 = call ptr @pbl_find_node_in_context(ptr noundef %13, ptr noundef %16, i32 noundef 6)
  store ptr %17, ptr %4, align 8
  %18 = load ptr, ptr %4, align 8
  %19 = icmp ne ptr %18, null
  br i1 %19, label %20, label %22

20:                                               ; preds = %10
  %21 = load ptr, ptr %4, align 8
  br label %23

22:                                               ; preds = %10
  br label %23

23:                                               ; preds = %22, %20
  %24 = phi ptr [ %21, %20 ], [ null, %22 ]
  store ptr %24, ptr %2, align 8
  store i32 1, ptr %5, align 4
  br label %26

25:                                               ; preds = %1
  store ptr null, ptr %2, align 8
  store i32 1, ptr %5, align 4
  br label %26

26:                                               ; preds = %25, %23
  call void @llvm.lifetime.end.p0(i64 8, ptr %4) #13
  %27 = load ptr, ptr %2, align 8
  ret ptr %27
}

; Function Attrs: null_pointer_is_valid sspstrong uwtable
define hidden i32 @pbl_field_descriptor_type(ptr noundef %0) #0 {
  %2 = alloca ptr, align 8
  %3 = alloca ptr, align 8
  store ptr %0, ptr %2, align 8
  call void @llvm.lifetime.start.p0(i64 8, ptr %3) #13
  %4 = load ptr, ptr %2, align 8
  %5 = getelementptr inbounds nuw %struct.pbl_field_descriptor_t, ptr %4, i32 0, i32 2
  %6 = load i32, ptr %5, align 4
  %7 = icmp eq i32 %6, 0
  br i1 %7, label %8, label %36

8:                                                ; preds = %1
  %9 = load ptr, ptr %2, align 8
  %10 = getelementptr inbounds nuw %struct.pbl_node_t, ptr %9, i32 0, i32 3
  %11 = load ptr, ptr %10, align 8
  %12 = load ptr, ptr %2, align 8
  %13 = getelementptr inbounds nuw %struct.pbl_field_descriptor_t, ptr %12, i32 0, i32 3
  %14 = load ptr, ptr %13, align 8
  %15 = call ptr @pbl_find_node_in_context(ptr noundef %11, ptr noundef %14, i32 noundef 6)
  store ptr %15, ptr %3, align 8
  %16 = load ptr, ptr %3, align 8
  %17 = icmp ne ptr %16, null
  br i1 %17, label %18, label %21

18:                                               ; preds = %8
  %19 = load ptr, ptr %2, align 8
  %20 = getelementptr inbounds nuw %struct.pbl_field_descriptor_t, ptr %19, i32 0, i32 2
  store i32 14, ptr %20, align 4
  br label %35

21:                                               ; preds = %8
  %22 = load ptr, ptr %2, align 8
  %23 = getelementptr inbounds nuw %struct.pbl_node_t, ptr %22, i32 0, i32 3
  %24 = load ptr, ptr %23, align 8
  %25 = load ptr, ptr %2, align 8
  %26 = getelementptr inbounds nuw %struct.pbl_field_descriptor_t, ptr %25, i32 0, i32 3
  %27 = load ptr, ptr %26, align 8
  %28 = call ptr @pbl_find_node_in_context(ptr noundef %24, ptr noundef %27, i32 noundef 2)
  store ptr %28, ptr %3, align 8
  %29 = load ptr, ptr %3, align 8
  %30 = icmp ne ptr %29, null
  br i1 %30, label %31, label %34

31:                                               ; preds = %21
  %32 = load ptr, ptr %2, align 8
  %33 = getelementptr inbounds nuw %struct.pbl_field_descriptor_t, ptr %32, i32 0, i32 2
  store i32 11, ptr %33, align 4
  br label %34

34:                                               ; preds = %31, %21
  br label %35

35:                                               ; preds = %34, %18
  br label %36

36:                                               ; preds = %35, %1
  %37 = load ptr, ptr %2, align 8
  %38 = getelementptr inbounds nuw %struct.pbl_field_descriptor_t, ptr %37, i32 0, i32 2
  %39 = load i32, ptr %38, align 4
  call void @llvm.lifetime.end.p0(i64 8, ptr %3) #13
  ret i32 %39
}

; Function Attrs: null_pointer_is_valid sspstrong uwtable
define hidden ptr @pbl_field_descriptor_default_value_enum(ptr noundef %0) #0 {
  %2 = alloca ptr, align 8
  %3 = alloca ptr, align 8
  store ptr %0, ptr %2, align 8
  call void @llvm.lifetime.start.p0(i64 8, ptr %3) #13
  %4 = load ptr, ptr %2, align 8
  %5 = call i32 @pbl_field_descriptor_type(ptr noundef %4)
  %6 = icmp eq i32 %5, 14
  br i1 %6, label %7, label %35

7:                                                ; preds = %1
  %8 = load ptr, ptr %2, align 8
  %9 = getelementptr inbounds nuw %struct.pbl_field_descriptor_t, ptr %8, i32 0, i32 10
  %10 = load ptr, ptr %9, align 8
  %11 = icmp eq ptr %10, null
  br i1 %11, label %12, label %35

12:                                               ; preds = %7
  %13 = load ptr, ptr %2, align 8
  %14 = call ptr @pbl_field_descriptor_enum_type(ptr noundef %13)
  store ptr %14, ptr %3, align 8
  %15 = icmp ne ptr %14, null
  br i1 %15, label %16, label %35

16:                                               ; preds = %12
  %17 = load ptr, ptr %2, align 8
  %18 = getelementptr inbounds nuw %struct.pbl_field_descriptor_t, ptr %17, i32 0, i32 8
  %19 = load ptr, ptr %18, align 8
  %20 = icmp ne ptr %19, null
  br i1 %20, label %21, label %29

21:                                               ; preds = %16
  %22 = load ptr, ptr %3, align 8
  %23 = load ptr, ptr %2, align 8
  %24 = getelementptr inbounds nuw %struct.pbl_field_descriptor_t, ptr %23, i32 0, i32 8
  %25 = load ptr, ptr %24, align 8
  %26 = call ptr @pbl_enum_descriptor_FindValueByName(ptr noundef %22, ptr noundef %25)
  %27 = load ptr, ptr %2, align 8
  %28 = getelementptr inbounds nuw %struct.pbl_field_descriptor_t, ptr %27, i32 0, i32 10
  store ptr %26, ptr %28, align 8
  br label %34

29:                                               ; preds = %16
  %30 = load ptr, ptr %3, align 8
  %31 = call ptr @pbl_enum_descriptor_value(ptr noundef %30, i32 noundef 0)
  %32 = load ptr, ptr %2, align 8
  %33 = getelementptr inbounds nuw %struct.pbl_field_descriptor_t, ptr %32, i32 0, i32 10
  store ptr %31, ptr %33, align 8
  br label %34

34:                                               ; preds = %29, %21
  br label %35

35:                                               ; preds = %34, %12, %7, %1
  %36 = load ptr, ptr %2, align 8
  %37 = getelementptr inbounds nuw %struct.pbl_field_descriptor_t, ptr %36, i32 0, i32 10
  %38 = load ptr, ptr %37, align 8
  call void @llvm.lifetime.end.p0(i64 8, ptr %3) #13
  ret ptr %38
}