; Function Attrs: null_pointer_is_valid sspstrong uwtable
define hidden ptr @pbl_field_descriptor_default_value_enum(ptr noundef captures(none) %0) local_unnamed_addr #0 {
  %2 = getelementptr inbounds nuw i8, ptr %0, i64 68
  %3 = load i32, ptr %2, align 4
  %4 = icmp eq i32 %3, 0
  br i1 %4, label %5, label %pbl_field_descriptor_type.exit

5:                                                ; preds = %1
  %6 = getelementptr inbounds nuw i8, ptr %0, i64 24
  %7 = load ptr, ptr %6, align 8
  %8 = getelementptr inbounds nuw i8, ptr %0, i64 72
  %9 = load ptr, ptr %8, align 8
  %10 = tail call fastcc ptr @pbl_find_node_in_context(ptr noundef %7, ptr noundef %9, i32 noundef 6)
  %.not.i = icmp eq ptr %10, null
  br i1 %.not.i, label %11, label %pbl_field_descriptor_type.exit.thread

pbl_field_descriptor_type.exit.thread:            ; preds = %5
  store i32 14, ptr %2, align 4
  br label %17

11:                                               ; preds = %5
  %12 = load ptr, ptr %6, align 8
  %13 = load ptr, ptr %8, align 8
  %14 = tail call fastcc ptr @pbl_find_node_in_context(ptr noundef %12, ptr noundef %13, i32 noundef 2)
  %.not10.i = icmp eq ptr %14, null
  br i1 %.not10.i, label %._crit_edge.i, label %pbl_field_descriptor_type.exit.thread15

._crit_edge.i:                                    ; preds = %11
  %.pre.i = load i32, ptr %2, align 4
  br label %pbl_field_descriptor_type.exit

pbl_field_descriptor_type.exit.thread15:          ; preds = %11
  store i32 11, ptr %2, align 4
  br label %pbl_field_descriptor_enum_type.exit.thread

pbl_field_descriptor_type.exit:                   ; preds = %1, %._crit_edge.i
  %15 = phi i32 [ %.pre.i, %._crit_edge.i ], [ %3, %1 ]
  %16 = icmp eq i32 %15, 14
  br i1 %16, label %17, label %pbl_field_descriptor_enum_type.exit.thread

17:                                               ; preds = %pbl_field_descriptor_type.exit.thread, %pbl_field_descriptor_type.exit
  %18 = getelementptr inbounds nuw i8, ptr %0, i64 112
  %19 = load ptr, ptr %18, align 8
  %20 = icmp eq ptr %19, null
  br i1 %20, label %pbl_field_descriptor_enum_type.exit, label %pbl_field_descriptor_enum_type.exit.thread

pbl_field_descriptor_enum_type.exit:              ; preds = %17
  %21 = getelementptr inbounds nuw i8, ptr %0, i64 24
  %22 = load ptr, ptr %21, align 8
  %23 = getelementptr inbounds nuw i8, ptr %0, i64 72
  %24 = load ptr, ptr %23, align 8
  %25 = tail call fastcc ptr @pbl_find_node_in_context(ptr noundef %22, ptr noundef %24, i32 noundef 6)
  %.not = icmp eq ptr %25, null
  br i1 %.not, label %pbl_field_descriptor_enum_type.exit.thread, label %26

26:                                               ; preds = %pbl_field_descriptor_enum_type.exit
  %27 = getelementptr inbounds nuw i8, ptr %0, i64 96
  %28 = load ptr, ptr %27, align 8
  %.not11 = icmp eq ptr %28, null
  br i1 %.not11, label %34, label %29

29:                                               ; preds = %26
  %30 = getelementptr inbounds nuw i8, ptr %25, i64 40
  %31 = load ptr, ptr %30, align 8
  %.not7.i = icmp eq ptr %31, null
  br i1 %.not7.i, label %pbl_enum_descriptor_FindValueByName.exit, label %32

32:                                               ; preds = %29
  %33 = tail call ptr @g_hash_table_lookup(ptr noundef nonnull %31, ptr noundef nonnull %28)
  br label %pbl_enum_descriptor_FindValueByName.exit

pbl_enum_descriptor_FindValueByName.exit:         ; preds = %29, %32
  %.0.i13 = phi ptr [ %33, %32 ], [ null, %29 ]
  store ptr %.0.i13, ptr %18, align 8
  br label %pbl_field_descriptor_enum_type.exit.thread

34:                                               ; preds = %26
  %35 = getelementptr inbounds nuw i8, ptr %25, i64 64
  %36 = load ptr, ptr %35, align 8
  %.not4.i = icmp eq ptr %36, null
  br i1 %.not4.i, label %pbl_enum_descriptor_value.exit, label %37

37:                                               ; preds = %34
  %38 = tail call ptr @g_queue_peek_nth(ptr noundef nonnull %36, i32 noundef 0)
  br label %pbl_enum_descriptor_value.exit

pbl_enum_descriptor_value.exit:                   ; preds = %34, %37
  %39 = phi ptr [ %38, %37 ], [ null, %34 ]
  store ptr %39, ptr %18, align 8
  br label %pbl_field_descriptor_enum_type.exit.thread

pbl_field_descriptor_enum_type.exit.thread:       ; preds = %pbl_field_descriptor_type.exit.thread15, %pbl_enum_descriptor_FindValueByName.exit, %pbl_enum_descriptor_value.exit, %pbl_field_descriptor_enum_type.exit, %17, %pbl_field_descriptor_type.exit
  %40 = getelementptr inbounds nuw i8, ptr %0, i64 112
  %41 = load ptr, ptr %40, align 8
  ret ptr %41
}